; Function Attrs: mustprogress uwtable
define hidden void @_ZN14bind_variables7add_varEP3app(ptr noundef nonnull align 8 dereferenceable(120) %this, ptr noundef %v) local_unnamed_addr #3 align 2 {
entry:
  %ref.tmp.i = alloca %"struct.obj_map<app, var *>::key_data", align 8
  %tobool.not.i.i.i.i = icmp eq ptr %v, null
  br i1 %tobool.not.i.i.i.i, label %_ZN15ref_vector_coreI3app19ref_manager_wrapperIS0_11ast_managerEE7inc_refEPS0_.exit.i, label %if.then.i.i.i.i

if.then.i.i.i.i:                                  ; preds = %entry
  %m_ref_count.i.i.i.i.i = getelementptr inbounds i8, ptr %v, i64 8
  %0 = load i32, ptr %m_ref_count.i.i.i.i.i, align 4
  %inc.i.i.i.i.i = add i32 %0, 1
  store i32 %inc.i.i.i.i.i, ptr %m_ref_count.i.i.i.i.i, align 4
  br label %_ZN15ref_vector_coreI3app19ref_manager_wrapperIS0_11ast_managerEE7inc_refEPS0_.exit.i

_ZN15ref_vector_coreI3app19ref_manager_wrapperIS0_11ast_managerEE7inc_refEPS0_.exit.i: ; preds = %if.then.i.i.i.i, %entry
  %m_nodes.i = getelementptr inbounds i8, ptr %this, i64 16
  %1 = load ptr, ptr %m_nodes.i, align 8
  %cmp.i.i = icmp eq ptr %1, null
  br i1 %cmp.i.i, label %if.then.i.i, label %lor.lhs.false.i.i

lor.lhs.false.i.i:                                ; preds = %_ZN15ref_vector_coreI3app19ref_manager_wrapperIS0_11ast_managerEE7inc_refEPS0_.exit.i
  %arrayidx.i.i = getelementptr inbounds i8, ptr %1, i64 -4
  %2 = load i32, ptr %arrayidx.i.i, align 4
  %arrayidx4.i.i = getelementptr inbounds i8, ptr %1, i64 -8
  %3 = load i32, ptr %arrayidx4.i.i, align 4
  %cmp5.i.i = icmp eq i32 %2, %3
  br i1 %cmp5.i.i, label %if.then.i.i, label %_ZN15ref_vector_coreI3app19ref_manager_wrapperIS0_11ast_managerEE9push_backEPS0_.exit

if.then.i.i:                                      ; preds = %lor.lhs.false.i.i, %_ZN15ref_vector_coreI3app19ref_manager_wrapperIS0_11ast_managerEE7inc_refEPS0_.exit.i
  tail call void @_ZN6vectorIP3appLb0EjE13expand_vectorEv(ptr noundef nonnull align 8 dereferenceable(8) %m_nodes.i)
  %.pre.i.i = load ptr, ptr %m_nodes.i, align 8
  %arrayidx8.phi.trans.insert.i.i = getelementptr inbounds i8, ptr %.pre.i.i, i64 -4
  %.pre1.i.i = load i32, ptr %arrayidx8.phi.trans.insert.i.i, align 4
  br label %_ZN15ref_vector_coreI3app19ref_manager_wrapperIS0_11ast_managerEE9push_backEPS0_.exit

_ZN15ref_vector_coreI3app19ref_manager_wrapperIS0_11ast_managerEE9push_backEPS0_.exit: ; preds = %lor.lhs.false.i.i, %if.then.i.i
  %4 = phi i32 [ %.pre1.i.i, %if.then.i.i ], [ %2, %lor.lhs.false.i.i ]
  %5 = phi ptr [ %.pre.i.i, %if.then.i.i ], [ %1, %lor.lhs.false.i.i ]
  %idx.ext.i.i = zext i32 %4 to i64
  %add.ptr.i.i = getelementptr inbounds ptr, ptr %5, i64 %idx.ext.i.i
  store ptr %v, ptr %add.ptr.i.i, align 8
  %6 = load ptr, ptr %m_nodes.i, align 8
  %arrayidx10.i.i = getelementptr inbounds i8, ptr %6, i64 -4
  %7 = load i32, ptr %arrayidx10.i.i, align 4
  %inc.i.i = add i32 %7, 1
  store i32 %inc.i.i, ptr %arrayidx10.i.i, align 4
  %m_var2bound = getelementptr inbounds i8, ptr %this, i64 48
  call void @llvm.lifetime.start.p0(i64 16, ptr nonnull %ref.tmp.i)
  store ptr %v, ptr %ref.tmp.i, align 8
  %m_value.i.i = getelementptr inbounds i8, ptr %ref.tmp.i, i64 8
  store ptr null, ptr %m_value.i.i, align 8
  call void @_ZN14core_hashtableIN7obj_mapI3appP3varE13obj_map_entryE8obj_hashINS4_8key_dataEE10default_eqIS7_EE6insertEOS7_(ptr noundef nonnull align 8 dereferenceable(20) %m_var2bound, ptr noundef nonnull align 8 dereferenceable(16) %ref.tmp.i)
  call void @llvm.lifetime.end.p0(i64 16, ptr nonnull %ref.tmp.i)
  ret void
}